; Function Attrs: mustprogress uwtable
define hidden void @_ZN2cv3ccm5ColorixENS_3MatE(ptr dead_on_unwind noalias writable sret(%"class.cv::ccm::Color") align 8 %0, ptr noundef nonnull align 8 dereferenceable(352) %1, ptr noundef nonnull %2) local_unnamed_addr #0 align 2 personality ptr @__gxx_personality_v0 {
  %4 = alloca %"class.cv::Mat", align 8
  %5 = getelementptr inbounds i8, ptr %1, i64 8
  call void @_ZN2cv3ccm10maskCopyToERKNS_3MatES3_(ptr dead_on_unwind nonnull writable sret(%"class.cv::Mat") align 8 %4, ptr noundef nonnull align 8 dereferenceable(96) %5, ptr noundef nonnull align 8 dereferenceable(96) %2)
  %6 = getelementptr inbounds i8, ptr %1, i64 104
  %7 = load ptr, ptr %6, align 8
  store ptr getelementptr inbounds inrange(-16, 16) (i8, ptr @_ZTVN2cv3ccm5ColorE, i64 16), ptr %0, align 8
  %8 = getelementptr inbounds i8, ptr %0, i64 8
  invoke void @_ZN2cv3MatC1ERKS0_(ptr noundef nonnull align 8 dereferenceable(96) %8, ptr noundef nonnull align 8 dereferenceable(96) %4)
          to label %9 unwind label %18

9:                                                ; preds = %3
  %10 = getelementptr inbounds i8, ptr %0, i64 104
  store ptr %7, ptr %10, align 8
  %11 = getelementptr inbounds i8, ptr %0, i64 112
  call void @_ZN2cv3MatC1Ev(ptr noundef nonnull align 8 dereferenceable(96) %11) #14
  %12 = getelementptr inbounds i8, ptr %0, i64 208
  call void @_ZN2cv3MatC1Ev(ptr noundef nonnull align 8 dereferenceable(96) %12) #14
  %13 = getelementptr inbounds i8, ptr %0, i64 312
  store i32 0, ptr %13, align 8
  %14 = getelementptr inbounds i8, ptr %0, i64 320
  store ptr null, ptr %14, align 8
  %15 = getelementptr inbounds i8, ptr %0, i64 328
  store ptr %13, ptr %15, align 8
  %16 = getelementptr inbounds i8, ptr %0, i64 336
  store ptr %13, ptr %16, align 8
  %17 = getelementptr inbounds i8, ptr %0, i64 344
  store i64 0, ptr %17, align 8
  call void @_ZN2cv3MatD1Ev(ptr noundef nonnull align 8 dereferenceable(96) %4) #14
  ret void

18:                                               ; preds = %3
  %19 = landingpad { ptr, i32 }
          cleanup
  call void @_ZN2cv3MatD1Ev(ptr noundef nonnull align 8 dereferenceable(96) %4) #14
  resume { ptr, i32 } %19
}